; Function Attrs: mustprogress uwtable
define dso_local void @_ZNK14btQuantizedBvh39walkStacklessQuantizedTreeCacheFriendlyEP21btNodeOverlapCallbackPtS2_(ptr noundef nonnull readonly align 8 captures(none) dereferenceable(244) %0, ptr noundef %1, ptr noundef readonly captures(none) %2, ptr noundef readonly captures(none) %3) local_unnamed_addr #2 align 2 {
  %5 = getelementptr inbounds nuw i8, ptr %0, i64 212
  %6 = load i32, ptr %5, align 4, !tbaa !36
  %7 = icmp sgt i32 %6, 0
  br i1 %7, label %.lr.ph, label %._crit_edge

.lr.ph:                                           ; preds = %4
  %8 = getelementptr inbounds nuw i8, ptr %0, i64 224
  %9 = getelementptr inbounds nuw i8, ptr %2, i64 4
  %10 = getelementptr inbounds nuw i8, ptr %3, i64 4
  %11 = getelementptr inbounds nuw i8, ptr %2, i64 2
  %12 = getelementptr inbounds nuw i8, ptr %3, i64 2
  %13 = getelementptr inbounds nuw i8, ptr %0, i64 184
  br label %14

14:                                               ; preds = %.lr.ph, %_ZNK14btQuantizedBvh26walkStacklessQuantizedTreeEP21btNodeOverlapCallbackPtS2_ii.exit
  %15 = phi i32 [ %6, %.lr.ph ], [ %94, %_ZNK14btQuantizedBvh26walkStacklessQuantizedTreeEP21btNodeOverlapCallbackPtS2_ii.exit ]
  %indvars.iv = phi i64 [ 0, %.lr.ph ], [ %indvars.iv.next, %_ZNK14btQuantizedBvh26walkStacklessQuantizedTreeEP21btNodeOverlapCallbackPtS2_ii.exit ]
  %16 = load ptr, ptr %8, align 8, !tbaa !35
  %17 = getelementptr inbounds nuw %class.btBvhSubtreeInfo, ptr %16, i64 %indvars.iv
  %18 = getelementptr inbounds nuw i8, ptr %17, i64 6
  %19 = load i16, ptr %2, align 2, !tbaa !52
  %20 = load i16, ptr %18, align 2, !tbaa !52
  %21 = icmp ugt i16 %19, %20
  %22 = load i16, ptr %3, align 2, !tbaa !52
  %23 = load i16, ptr %17, align 2, !tbaa !52
  %24 = icmp ult i16 %22, %23
  %.not23.not32.i.not22 = or i1 %21, %24
  %25 = load i16, ptr %9, align 2, !tbaa !52
  %26 = getelementptr inbounds nuw i8, ptr %17, i64 10
  %27 = load i16, ptr %26, align 2, !tbaa !52
  %28 = icmp ugt i16 %25, %27
  %.not21.not29.i.not19 = or i1 %.not23.not32.i.not22, %28
  %29 = load i16, ptr %10, align 2, !tbaa !52
  %30 = getelementptr inbounds nuw i8, ptr %17, i64 4
  %31 = load i16, ptr %30, align 2, !tbaa !52
  %32 = icmp ult i16 %29, %31
  %.not18.not27.i.not17 = or i1 %.not21.not29.i.not19, %32
  %33 = load i16, ptr %11, align 2, !tbaa !52
  %34 = getelementptr inbounds nuw i8, ptr %17, i64 8
  %35 = load i16, ptr %34, align 2, !tbaa !52
  %36 = icmp ugt i16 %33, %35
  %.not16.not25.i.not15 = or i1 %.not18.not27.i.not17, %36
  %37 = load i16, ptr %12, align 2, !tbaa !52
  %38 = getelementptr inbounds nuw i8, ptr %17, i64 2
  %39 = load i16, ptr %38, align 2, !tbaa !52
  %40 = icmp ult i16 %37, %39
  %.not13.not.i.not = or i1 %.not16.not25.i.not15, %40
  br i1 %.not13.not.i.not, label %_ZNK14btQuantizedBvh26walkStacklessQuantizedTreeEP21btNodeOverlapCallbackPtS2_ii.exit, label %41

41:                                               ; preds = %14
  %42 = getelementptr inbounds nuw i8, ptr %17, i64 12
  %43 = load i32, ptr %42, align 4, !tbaa !54
  %44 = getelementptr inbounds nuw i8, ptr %17, i64 16
  %45 = load i32, ptr %44, align 4, !tbaa !58
  %46 = add nsw i32 %45, %43
  %47 = icmp sgt i32 %45, 0
  br i1 %47, label %.lr.ph.i, label %_ZNK14btQuantizedBvh26walkStacklessQuantizedTreeEP21btNodeOverlapCallbackPtS2_ii.exit

.lr.ph.i:                                         ; preds = %41
  %48 = load ptr, ptr %13, align 8, !tbaa !30
  %49 = sext i32 %43 to i64
  %50 = getelementptr inbounds %struct.btQuantizedBvhNode, ptr %48, i64 %49
  br label %51

51:                                               ; preds = %92, %.lr.ph.i
  %.032.i = phi i32 [ %43, %.lr.ph.i ], [ %.1.i, %92 ]
  %.02831.i = phi ptr [ %50, %.lr.ph.i ], [ %.129.i, %92 ]
  %52 = getelementptr inbounds nuw i8, ptr %.02831.i, i64 6
  %53 = load i16, ptr %2, align 2, !tbaa !52
  %54 = load i16, ptr %52, align 2, !tbaa !52
  %55 = icmp ule i16 %53, %54
  %56 = load i16, ptr %3, align 2, !tbaa !52
  %57 = load i16, ptr %.02831.i, align 2, !tbaa !52
  %58 = icmp uge i16 %56, %57
  %.not23.not32.i.i = and i1 %55, %58
  %59 = load i16, ptr %9, align 2, !tbaa !52
  %60 = getelementptr inbounds nuw i8, ptr %.02831.i, i64 10
  %61 = load i16, ptr %60, align 2, !tbaa !52
  %62 = icmp ule i16 %59, %61
  %.not21.not29.i.i = and i1 %.not23.not32.i.i, %62
  %63 = load i16, ptr %10, align 2, !tbaa !52
  %64 = getelementptr inbounds nuw i8, ptr %.02831.i, i64 4
  %65 = load i16, ptr %64, align 2, !tbaa !52
  %66 = icmp uge i16 %63, %65
  %.not18.not27.i.i = and i1 %.not21.not29.i.i, %66
  %67 = load i16, ptr %11, align 2, !tbaa !52
  %68 = getelementptr inbounds nuw i8, ptr %.02831.i, i64 8
  %69 = load i16, ptr %68, align 2, !tbaa !52
  %70 = icmp ule i16 %67, %69
  %.not16.not25.i.i = and i1 %.not18.not27.i.i, %70
  %71 = load i16, ptr %12, align 2, !tbaa !52
  %72 = getelementptr inbounds nuw i8, ptr %.02831.i, i64 2
  %73 = load i16, ptr %72, align 2, !tbaa !52
  %74 = icmp uge i16 %71, %73
  %.not13.not.i.i = and i1 %.not16.not25.i.i, %74
  %75 = getelementptr inbounds nuw i8, ptr %.02831.i, i64 12
  %76 = load i32, ptr %75, align 4, !tbaa !56
  %77 = icmp sgt i32 %76, -1
  %or.cond.i = and i1 %77, %.not13.not.i.i
  br i1 %or.cond.i, label %.thread.i, label %83

.thread.i:                                        ; preds = %51
  %78 = lshr i32 %76, 27
  %79 = and i32 %76, 134217727
  %80 = load ptr, ptr %1, align 8, !tbaa !4
  %81 = getelementptr inbounds nuw i8, ptr %80, i64 16
  %82 = load ptr, ptr %81, align 8
  tail call void %82(ptr noundef nonnull align 8 dereferenceable(8) %1, i32 noundef %78, i32 noundef %79)
  br label %84

83:                                               ; preds = %51
  %brmerge.i = or i1 %.not13.not.i.i, %77
  br i1 %brmerge.i, label %84, label %87

84:                                               ; preds = %83, %.thread.i
  %85 = getelementptr inbounds nuw i8, ptr %.02831.i, i64 16
  %86 = add nsw i32 %.032.i, 1
  br label %92

87:                                               ; preds = %83
  %88 = sub nsw i32 0, %76
  %89 = zext nneg i32 %88 to i64
  %90 = getelementptr inbounds nuw %struct.btQuantizedBvhNode, ptr %.02831.i, i64 %89
  %91 = sub nsw i32 %.032.i, %76
  br label %92

92:                                               ; preds = %87, %84
  %.129.i = phi ptr [ %85, %84 ], [ %90, %87 ]
  %.1.i = phi i32 [ %86, %84 ], [ %91, %87 ]
  %93 = icmp slt i32 %.1.i, %46
  br i1 %93, label %51, label %_ZNK14btQuantizedBvh26walkStacklessQuantizedTreeEP21btNodeOverlapCallbackPtS2_ii.exit.loopexit, !llvm.loop !69

_ZNK14btQuantizedBvh26walkStacklessQuantizedTreeEP21btNodeOverlapCallbackPtS2_ii.exit.loopexit: ; preds = %92
  %.pre = load i32, ptr %5, align 4, !tbaa !36
  br label %_ZNK14btQuantizedBvh26walkStacklessQuantizedTreeEP21btNodeOverlapCallbackPtS2_ii.exit

_ZNK14btQuantizedBvh26walkStacklessQuantizedTreeEP21btNodeOverlapCallbackPtS2_ii.exit: ; preds = %_ZNK14btQuantizedBvh26walkStacklessQuantizedTreeEP21btNodeOverlapCallbackPtS2_ii.exit.loopexit, %41, %14
  %94 = phi i32 [ %.pre, %_ZNK14btQuantizedBvh26walkStacklessQuantizedTreeEP21btNodeOverlapCallbackPtS2_ii.exit.loopexit ], [ %15, %41 ], [ %15, %14 ]
  %indvars.iv.next = add nuw nsw i64 %indvars.iv, 1
  %95 = sext i32 %94 to i64
  %96 = icmp slt i64 %indvars.iv.next, %95
  br i1 %96, label %14, label %._crit_edge, !llvm.loop !73

._crit_edge:                                      ; preds = %_ZNK14btQuantizedBvh26walkStacklessQuantizedTreeEP21btNodeOverlapCallbackPtS2_ii.exit, %4
  ret void
}